target datalayout = "e-m:e-p270:32:32-p271:32:32-p272:64:64-i64:64-i128:128-f80:128-n8:16:32:64-S128"
target triple = "x86_64-pc-linux-gnu"

%"class.lean::object_ref" = type { ptr }
%"class.lean::nat" = type { %"class.lean::object_ref" }
%struct.lean_object = type { i32, i32 }

; Function Attrs: inlinehint mustprogress nounwind uwtable
define internal noundef ptr @_ZL8lean_boxm(i64 noundef %0) #6 {
  %2 = alloca i64, align 8
  store i64 %0, ptr %2, align 8, !tbaa !105
  %3 = load i64, ptr %2, align 8, !tbaa !105
  %4 = shl i64 %3, 1
  %5 = or i64 %4, 1
  %6 = inttoptr i64 %5 to ptr
  ret ptr %6
}

; Function Attrs: inlinehint mustprogress nounwind uwtable
define internal noundef zeroext i1 @_ZL10lean_is_stP11lean_object(ptr noundef %0) #6 {
  %2 = alloca ptr, align 8
  store ptr %0, ptr %2, align 8, !tbaa !10
  %3 = load ptr, ptr %2, align 8, !tbaa !10
  %4 = getelementptr inbounds nuw %struct.lean_object, ptr %3, i32 0, i32 0
  %5 = load i32, ptr %4, align 4, !tbaa !85
  %6 = icmp sgt i32 %5, 0
  ret i1 %6
}

; Function Attrs: inlinehint mustprogress uwtable
define internal noundef ptr @_ZL17lean_usize_to_natm(i64 noundef %0) #4 {
  %2 = alloca ptr, align 8
  %3 = alloca i64, align 8
  store i64 %0, ptr %3, align 8, !tbaa !105
  %4 = load i64, ptr %3, align 8, !tbaa !105
  %5 = icmp ule i64 %4, 9223372036854775807
  %6 = zext i1 %5 to i64
  %7 = call i64 @llvm.expect.i64(i64 %6, i64 1)
  %8 = icmp ne i64 %7, 0
  br i1 %8, label %9, label %12

9:                                                ; preds = %1
  %10 = load i64, ptr %3, align 8, !tbaa !105
  %11 = call noundef ptr @_ZL8lean_boxm(i64 noundef %10)
  store ptr %11, ptr %2, align 8
  br label %15

12:                                               ; preds = %1
  %13 = load i64, ptr %3, align 8, !tbaa !105
  %14 = call ptr @lean_big_usize_to_nat(i64 noundef %13)
  store ptr %14, ptr %2, align 8
  br label %15

15:                                               ; preds = %12, %9
  %16 = load ptr, ptr %2, align 8
  ret ptr %16
}

; Function Attrs: inlinehint mustprogress uwtable
define internal void @_ZL12lean_inc_refP11lean_object(ptr noundef %0) #4 {
  %2 = alloca ptr, align 8
  store ptr %0, ptr %2, align 8, !tbaa !10
  %3 = load ptr, ptr %2, align 8, !tbaa !10
  %4 = call noundef zeroext i1 @_ZL10lean_is_stP11lean_object(ptr noundef %3)
  %5 = zext i1 %4 to i64
  %6 = call i64 @llvm.expect.i64(i64 %5, i64 1)
  %7 = icmp ne i64 %6, 0
  br i1 %7, label %8, label %13

8:                                                ; preds = %1
  %9 = load ptr, ptr %2, align 8, !tbaa !10
  %10 = getelementptr inbounds nuw %struct.lean_object, ptr %9, i32 0, i32 0
  %11 = load i32, ptr %10, align 4, !tbaa !85
  %12 = add nsw i32 %11, 1
  store i32 %12, ptr %10, align 4, !tbaa !85
  br label %21

13:                                               ; preds = %1
  %14 = load ptr, ptr %2, align 8, !tbaa !10
  %15 = getelementptr inbounds nuw %struct.lean_object, ptr %14, i32 0, i32 0
  %16 = load i32, ptr %15, align 4, !tbaa !85
  %17 = icmp ne i32 %16, 0
  br i1 %17, label %18, label %20

18:                                               ; preds = %13
  %19 = load ptr, ptr %2, align 8, !tbaa !10
  call void @lean_inc_ref_cold(ptr noundef %19)
  br label %20

20:                                               ; preds = %18, %13
  br label %21

21:                                               ; preds = %20, %8
  ret void
}

; Function Attrs: alwaysinline mustprogress nounwind uwtable
define internal noundef zeroext i1 @_ZL14lean_is_scalarP11lean_object(ptr noundef %0) #10 {
  %2 = alloca ptr, align 8
  store ptr %0, ptr %2, align 8, !tbaa !10
  %3 = load ptr, ptr %2, align 8, !tbaa !10
  %4 = ptrtoint ptr %3 to i64
  %5 = and i64 %4, 1
  %6 = icmp eq i64 %5, 1
  ret i1 %6
}

; Function Attrs: inlinehint mustprogress uwtable
define internal noundef ptr @_ZL20lean_unsigned_to_natj(i32 noundef %0) #4 {
  %2 = alloca i32, align 4
  store i32 %0, ptr %2, align 4, !tbaa !3
  %3 = load i32, ptr %2, align 4, !tbaa !3
  %4 = zext i32 %3 to i64
  %5 = call noundef ptr @_ZL17lean_usize_to_natm(i64 noundef %4)
  ret ptr %5
}

; Function Attrs: alwaysinline mustprogress uwtable
define internal void @_ZL8lean_incP11lean_object(ptr noundef %0) #9 {
  %2 = alloca ptr, align 8
  store ptr %0, ptr %2, align 8, !tbaa !10
  %3 = load ptr, ptr %2, align 8, !tbaa !10
  %4 = call noundef zeroext i1 @_ZL14lean_is_scalarP11lean_object(ptr noundef %3)
  br i1 %4, label %7, label %5

5:                                                ; preds = %1
  %6 = load ptr, ptr %2, align 8, !tbaa !10
  call void @_ZL12lean_inc_refP11lean_object(ptr noundef %6)
  br label %7

7:                                                ; preds = %5, %1
  ret void
}

; Function Attrs: inlinehint mustprogress uwtable
define linkonce_odr hidden noundef ptr @_ZN4lean10mk_nat_objEj(i32 noundef %0) #4 comdat {
  %2 = alloca i32, align 4
  store i32 %0, ptr %2, align 4, !tbaa !3
  %3 = load i32, ptr %2, align 4, !tbaa !3
  %4 = call noundef ptr @_ZL20lean_unsigned_to_natj(i32 noundef %3)
  ret ptr %4
}

; Function Attrs: inlinehint mustprogress uwtable
define linkonce_odr hidden void @_ZN4lean3incEP11lean_object(ptr noundef %0) #4 comdat {
  %2 = alloca ptr, align 8
  store ptr %0, ptr %2, align 8, !tbaa !10
  %3 = load ptr, ptr %2, align 8, !tbaa !10
  call void @_ZL8lean_incP11lean_object(ptr noundef %3)
  ret void
}

; Function Attrs: mustprogress nounwind uwtable
define linkonce_odr hidden void @_ZN4lean10object_refC2EP11lean_object(ptr noundef nonnull align 8 dereferenceable(8) %0, ptr noundef %1) unnamed_addr #5 comdat align 2 {
  %3 = alloca ptr, align 8
  %4 = alloca ptr, align 8
  store ptr %0, ptr %3, align 8, !tbaa !11
  store ptr %1, ptr %4, align 8, !tbaa !10
  %5 = load ptr, ptr %3, align 8
  %6 = getelementptr inbounds nuw %"class.lean::object_ref", ptr %5, i32 0, i32 0
  %7 = load ptr, ptr %4, align 8, !tbaa !10
  store ptr %7, ptr %6, align 8, !tbaa !13
  ret void
}

; Function Attrs: mustprogress uwtable
define linkonce_odr hidden void @_ZN4lean3natC2Ej(ptr noundef nonnull align 8 dereferenceable(8) %0, i32 noundef %1) unnamed_addr #0 comdat align 2 {
  %3 = alloca ptr, align 8
  %4 = alloca i32, align 4
  store ptr %0, ptr %3, align 8, !tbaa !47
  store i32 %1, ptr %4, align 4, !tbaa !3
  %5 = load ptr, ptr %3, align 8
  %6 = load i32, ptr %4, align 4, !tbaa !3
  %7 = call noundef ptr @_ZN4lean10mk_nat_objEj(i32 noundef %6)
  call void @_ZN4lean10object_refC2EP11lean_object(ptr noundef nonnull align 8 dereferenceable(8) %5, ptr noundef %7)
  ret void
}

; Function Attrs: mustprogress uwtable
define linkonce_odr hidden noundef ptr @_ZNK4lean10object_ref10to_obj_argEv(ptr noundef nonnull align 8 dereferenceable(8) %0) #0 comdat align 2 {
  %2 = alloca ptr, align 8
  store ptr %0, ptr %2, align 8, !tbaa !11
  %3 = load ptr, ptr %2, align 8
  %4 = getelementptr inbounds nuw %"class.lean::object_ref", ptr %3, i32 0, i32 0
  %5 = load ptr, ptr %4, align 8, !tbaa !13
  call void @_ZN4lean3incEP11lean_object(ptr noundef %5)
  %6 = getelementptr inbounds nuw %"class.lean::object_ref", ptr %3, i32 0, i32 0
  %7 = load ptr, ptr %6, align 8, !tbaa !13
  ret ptr %7
}

; Function Attrs: mustprogress uwtable
define hidden void @_ZN4lean12recursor_valC2ERKNS_4nameERKNS_8list_refIS1_EERKNS_4exprES7_jjjjRKNS4_INS_13recursor_ruleEEEbb(ptr noundef nonnull align 8 dereferenceable(8) %0, ptr noundef nonnull align 8 dereferenceable(8) %1, ptr noundef nonnull align 8 dereferenceable(8) %2, ptr noundef nonnull align 8 dereferenceable(8) %3, ptr noundef nonnull align 8 dereferenceable(8) %4, i32 noundef %5, i32 noundef %6, i32 noundef %7, i32 noundef %8, ptr noundef nonnull align 8 dereferenceable(8) %9, i1 noundef zeroext %10, i1 noundef zeroext %11) unnamed_addr #0 align 2 personality ptr @__gxx_personality_v0 {
  %13 = alloca ptr, align 8
  %14 = alloca ptr, align 8
  %15 = alloca ptr, align 8
  %16 = alloca ptr, align 8
  %17 = alloca ptr, align 8
  %18 = alloca i32, align 4
  %19 = alloca i32, align 4
  %20 = alloca i32, align 4
  %21 = alloca i32, align 4
  %22 = alloca ptr, align 8
  %23 = alloca i8, align 1
  %24 = alloca i8, align 1
  %25 = alloca %"class.lean::nat", align 8
  %26 = alloca ptr, align 8
  %27 = alloca i32, align 4
  %28 = alloca %"class.lean::nat", align 8
  %29 = alloca %"class.lean::nat", align 8
  %30 = alloca %"class.lean::nat", align 8
  store ptr %0, ptr %13, align 8, !tbaa !53
  store ptr %1, ptr %14, align 8, !tbaa !21
  store ptr %2, ptr %15, align 8, !tbaa !23
  store ptr %3, ptr %16, align 8, !tbaa !25
  store ptr %4, ptr %17, align 8, !tbaa !23
  store i32 %5, ptr %18, align 4, !tbaa !3
  store i32 %6, ptr %19, align 4, !tbaa !3
  store i32 %7, ptr %20, align 4, !tbaa !3
  store i32 %8, ptr %21, align 4, !tbaa !3
  store ptr %9, ptr %22, align 8, !tbaa !55
  %31 = zext i1 %10 to i8
  store i8 %31, ptr %23, align 1, !tbaa !29
  %32 = zext i1 %11 to i8
  store i8 %32, ptr %24, align 1, !tbaa !29
  %33 = load ptr, ptr %13, align 8
  %34 = load ptr, ptr %14, align 8, !tbaa !21
  %35 = call noundef ptr @_ZNK4lean10object_ref10to_obj_argEv(ptr noundef nonnull align 8 dereferenceable(8) %34)
  %36 = load ptr, ptr %15, align 8, !tbaa !23
  %37 = call noundef ptr @_ZNK4lean10object_ref10to_obj_argEv(ptr noundef nonnull align 8 dereferenceable(8) %36)
  %38 = load ptr, ptr %16, align 8, !tbaa !25
  %39 = call noundef ptr @_ZNK4lean10object_ref10to_obj_argEv(ptr noundef nonnull align 8 dereferenceable(8) %38)
  %40 = load ptr, ptr %17, align 8, !tbaa !23
  %41 = call noundef ptr @_ZNK4lean10object_ref10to_obj_argEv(ptr noundef nonnull align 8 dereferenceable(8) %40)
  call void @llvm.lifetime.start.p0(i64 8, ptr %25) #16
  %42 = load i32, ptr %18, align 4, !tbaa !3
  call void @_ZN4lean3natC2Ej(ptr noundef nonnull align 8 dereferenceable(8) %25, i32 noundef %42)
  %43 = invoke noundef ptr @_ZNK4lean10object_ref10to_obj_argEv(ptr noundef nonnull align 8 dereferenceable(8) %25)
          to label %44 unwind label %69

44:                                               ; preds = %12
  call void @llvm.lifetime.start.p0(i64 8, ptr %28) #16
  %45 = load i32, ptr %19, align 4, !tbaa !3
  invoke void @_ZN4lean3natC2Ej(ptr noundef nonnull align 8 dereferenceable(8) %28, i32 noundef %45)
          to label %46 unwind label %73

46:                                               ; preds = %44
  %47 = invoke noundef ptr @_ZNK4lean10object_ref10to_obj_argEv(ptr noundef nonnull align 8 dereferenceable(8) %28)
          to label %48 unwind label %77

48:                                               ; preds = %46
  call void @llvm.lifetime.start.p0(i64 8, ptr %29) #16
  %49 = load i32, ptr %20, align 4, !tbaa !3
  invoke void @_ZN4lean3natC2Ej(ptr noundef nonnull align 8 dereferenceable(8) %29, i32 noundef %49)
          to label %50 unwind label %81

50:                                               ; preds = %48
  %51 = invoke noundef ptr @_ZNK4lean10object_ref10to_obj_argEv(ptr noundef nonnull align 8 dereferenceable(8) %29)
          to label %52 unwind label %85

52:                                               ; preds = %50
  call void @llvm.lifetime.start.p0(i64 8, ptr %30) #16
  %53 = load i32, ptr %21, align 4, !tbaa !3
  invoke void @_ZN4lean3natC2Ej(ptr noundef nonnull align 8 dereferenceable(8) %30, i32 noundef %53)
          to label %54 unwind label %89

54:                                               ; preds = %52
  %55 = invoke noundef ptr @_ZNK4lean10object_ref10to_obj_argEv(ptr noundef nonnull align 8 dereferenceable(8) %30)
          to label %56 unwind label %93

56:                                               ; preds = %54
  %57 = load ptr, ptr %22, align 8, !tbaa !55
  %58 = invoke noundef ptr @_ZNK4lean10object_ref10to_obj_argEv(ptr noundef nonnull align 8 dereferenceable(8) %57)
          to label %59 unwind label %93

59:                                               ; preds = %56
  %60 = load i8, ptr %23, align 1, !tbaa !29, !range !31, !noundef !32
  %61 = trunc i8 %60 to i1
  %62 = zext i1 %61 to i8
  %63 = load i8, ptr %24, align 1, !tbaa !29, !range !31, !noundef !32
  %64 = trunc i8 %63 to i1
  %65 = zext i1 %64 to i8
  %66 = invoke ptr @lean_mk_recursor_val(ptr noundef %35, ptr noundef %37, ptr noundef %39, ptr noundef %41, ptr noundef %43, ptr noundef %47, ptr noundef %51, ptr noundef %55, ptr noundef %58, i8 noundef zeroext %62, i8 noundef zeroext %65)
          to label %67 unwind label %93

67:                                               ; preds = %59
  invoke void @_ZN4lean10object_refC2EP11lean_object(ptr noundef nonnull align 8 dereferenceable(8) %33, ptr noundef %66)
          to label %68 unwind label %93

68:                                               ; preds = %67
  call void @_ZN4lean10object_refD2Ev(ptr noundef nonnull align 8 dereferenceable(8) %30) #16
  call void @llvm.lifetime.end.p0(i64 8, ptr %30) #16
  call void @_ZN4lean10object_refD2Ev(ptr noundef nonnull align 8 dereferenceable(8) %29) #16
  call void @llvm.lifetime.end.p0(i64 8, ptr %29) #16
  call void @_ZN4lean10object_refD2Ev(ptr noundef nonnull align 8 dereferenceable(8) %28) #16
  call void @llvm.lifetime.end.p0(i64 8, ptr %28) #16
  call void @_ZN4lean10object_refD2Ev(ptr noundef nonnull align 8 dereferenceable(8) %25) #16
  call void @llvm.lifetime.end.p0(i64 8, ptr %25) #16
  ret void

69:                                               ; preds = %12
  %70 = landingpad { ptr, i32 }
          cleanup
  %71 = extractvalue { ptr, i32 } %70, 0
  store ptr %71, ptr %26, align 8
  %72 = extractvalue { ptr, i32 } %70, 1
  store i32 %72, ptr %27, align 4
  br label %102

73:                                               ; preds = %44
  %74 = landingpad { ptr, i32 }
          cleanup
  %75 = extractvalue { ptr, i32 } %74, 0
  store ptr %75, ptr %26, align 8
  %76 = extractvalue { ptr, i32 } %74, 1
  store i32 %76, ptr %27, align 4
  br label %101

77:                                               ; preds = %46
  %78 = landingpad { ptr, i32 }
          cleanup
  %79 = extractvalue { ptr, i32 } %78, 0
  store ptr %79, ptr %26, align 8
  %80 = extractvalue { ptr, i32 } %78, 1
  store i32 %80, ptr %27, align 4
  br label %100

81:                                               ; preds = %48
  %82 = landingpad { ptr, i32 }
          cleanup
  %83 = extractvalue { ptr, i32 } %82, 0
  store ptr %83, ptr %26, align 8
  %84 = extractvalue { ptr, i32 } %82, 1
  store i32 %84, ptr %27, align 4
  br label %99

85:                                               ; preds = %50
  %86 = landingpad { ptr, i32 }
          cleanup
  %87 = extractvalue { ptr, i32 } %86, 0
  store ptr %87, ptr %26, align 8
  %88 = extractvalue { ptr, i32 } %86, 1
  store i32 %88, ptr %27, align 4
  br label %98

89:                                               ; preds = %52
  %90 = landingpad { ptr, i32 }
          cleanup
  %91 = extractvalue { ptr, i32 } %90, 0
  store ptr %91, ptr %26, align 8
  %92 = extractvalue { ptr, i32 } %90, 1
  store i32 %92, ptr %27, align 4
  br label %97

93:                                               ; preds = %67, %59, %56, %54
  %94 = landingpad { ptr, i32 }
          cleanup
  %95 = extractvalue { ptr, i32 } %94, 0
  store ptr %95, ptr %26, align 8
  %96 = extractvalue { ptr, i32 } %94, 1
  store i32 %96, ptr %27, align 4
  call void @_ZN4lean10object_refD2Ev(ptr noundef nonnull align 8 dereferenceable(8) %30) #16
  br label %97

97:                                               ; preds = %93, %89
  call void @llvm.lifetime.end.p0(i64 8, ptr %30) #16
  br label %98

98:                                               ; preds = %97, %85
  call void @_ZN4lean10object_refD2Ev(ptr noundef nonnull align 8 dereferenceable(8) %29) #16
  br label %99

99:                                               ; preds = %98, %81
  call void @llvm.lifetime.end.p0(i64 8, ptr %29) #16
  br label %100

100:                                              ; preds = %99, %77
  call void @_ZN4lean10object_refD2Ev(ptr noundef nonnull align 8 dereferenceable(8) %28) #16
  br label %101

101:                                              ; preds = %100, %73
  call void @llvm.lifetime.end.p0(i64 8, ptr %28) #16
  br label %102

102:                                              ; preds = %101, %69
  call void @_ZN4lean10object_refD2Ev(ptr noundef nonnull align 8 dereferenceable(8) %25) #16
  call void @llvm.lifetime.end.p0(i64 8, ptr %25) #16
  br label %103

103:                                              ; preds = %102
  %104 = load ptr, ptr %26, align 8
  %105 = load i32, ptr %27, align 4
  %106 = insertvalue { ptr, i32 } poison, ptr %104, 0
  %107 = insertvalue { ptr, i32 } %106, i32 %105, 1
  resume { ptr, i32 } %107
}