; Function Attrs: mustprogress uwtable
define hidden void @_ZN4lean12recursor_valC2ERKNS_4nameERKNS_8list_refIS1_EERKNS_4exprES7_jjjjRKNS4_INS_13recursor_ruleEEEbb(ptr noundef nonnull writeonly align 8 captures(none) dereferenceable(8) %0, ptr noundef nonnull readonly align 8 captures(none) dereferenceable(8) %1, ptr noundef nonnull readonly align 8 captures(none) dereferenceable(8) %2, ptr noundef nonnull readonly align 8 captures(none) dereferenceable(8) %3, ptr noundef nonnull readonly align 8 captures(none) dereferenceable(8) %4, i32 noundef %5, i32 noundef %6, i32 noundef %7, i32 noundef %8, ptr noundef nonnull readonly align 8 captures(none) dereferenceable(8) %9, i1 noundef zeroext %10, i1 noundef zeroext %11) unnamed_addr #0 align 2 personality ptr @__gxx_personality_v0 {
  %13 = alloca %"class.lean::nat", align 8
  %14 = alloca %"class.lean::nat", align 8
  %15 = alloca %"class.lean::nat", align 8
  %16 = alloca %"class.lean::nat", align 8
  %17 = zext i1 %10 to i8
  %18 = zext i1 %11 to i8
  %19 = load ptr, ptr %1, align 8, !tbaa !3
  %20 = ptrtoint ptr %19 to i64
  %21 = and i64 %20, 1
  %.not.i.i = icmp eq i64 %21, 0
  br i1 %.not.i.i, label %22, label %_ZNK4lean10object_ref10to_obj_argEv.exit

22:                                               ; preds = %12
  %.val.i.i.i = load i32, ptr %19, align 4, !tbaa !8
  %23 = icmp sgt i32 %.val.i.i.i, 0
  br i1 %23, label %24, label %26, !prof !11

24:                                               ; preds = %22
  %25 = add nuw nsw i32 %.val.i.i.i, 1
  store i32 %25, ptr %19, align 4, !tbaa !8
  br label %_ZNK4lean10object_ref10to_obj_argEv.exit

26:                                               ; preds = %22
  %.not.i.i.i = icmp eq i32 %.val.i.i.i, 0
  br i1 %.not.i.i.i, label %_ZNK4lean10object_ref10to_obj_argEv.exit, label %27

27:                                               ; preds = %26
  tail call void @lean_inc_ref_cold(ptr noundef nonnull %19)
  %.pre.i = load ptr, ptr %1, align 8, !tbaa !3
  br label %_ZNK4lean10object_ref10to_obj_argEv.exit

_ZNK4lean10object_ref10to_obj_argEv.exit:         ; preds = %12, %24, %26, %27
  %28 = phi ptr [ %19, %12 ], [ %19, %24 ], [ %19, %26 ], [ %.pre.i, %27 ]
  %29 = load ptr, ptr %2, align 8, !tbaa !3
  %30 = ptrtoint ptr %29 to i64
  %31 = and i64 %30, 1
  %.not.i.i25 = icmp eq i64 %31, 0
  br i1 %.not.i.i25, label %32, label %_ZNK4lean10object_ref10to_obj_argEv.exit29

32:                                               ; preds = %_ZNK4lean10object_ref10to_obj_argEv.exit
  %.val.i.i.i26 = load i32, ptr %29, align 4, !tbaa !8
  %33 = icmp sgt i32 %.val.i.i.i26, 0
  br i1 %33, label %34, label %36, !prof !11

34:                                               ; preds = %32
  %35 = add nuw nsw i32 %.val.i.i.i26, 1
  store i32 %35, ptr %29, align 4, !tbaa !8
  br label %_ZNK4lean10object_ref10to_obj_argEv.exit29

36:                                               ; preds = %32
  %.not.i.i.i27 = icmp eq i32 %.val.i.i.i26, 0
  br i1 %.not.i.i.i27, label %_ZNK4lean10object_ref10to_obj_argEv.exit29, label %37

37:                                               ; preds = %36
  tail call void @lean_inc_ref_cold(ptr noundef nonnull %29)
  %.pre.i28 = load ptr, ptr %2, align 8, !tbaa !3
  br label %_ZNK4lean10object_ref10to_obj_argEv.exit29

_ZNK4lean10object_ref10to_obj_argEv.exit29:       ; preds = %_ZNK4lean10object_ref10to_obj_argEv.exit, %34, %36, %37
  %38 = phi ptr [ %29, %_ZNK4lean10object_ref10to_obj_argEv.exit ], [ %29, %34 ], [ %29, %36 ], [ %.pre.i28, %37 ]
  %39 = load ptr, ptr %3, align 8, !tbaa !3
  %40 = ptrtoint ptr %39 to i64
  %41 = and i64 %40, 1
  %.not.i.i30 = icmp eq i64 %41, 0
  br i1 %.not.i.i30, label %42, label %_ZNK4lean10object_ref10to_obj_argEv.exit34

42:                                               ; preds = %_ZNK4lean10object_ref10to_obj_argEv.exit29
  %.val.i.i.i31 = load i32, ptr %39, align 4, !tbaa !8
  %43 = icmp sgt i32 %.val.i.i.i31, 0
  br i1 %43, label %44, label %46, !prof !11

44:                                               ; preds = %42
  %45 = add nuw nsw i32 %.val.i.i.i31, 1
  store i32 %45, ptr %39, align 4, !tbaa !8
  br label %_ZNK4lean10object_ref10to_obj_argEv.exit34

46:                                               ; preds = %42
  %.not.i.i.i32 = icmp eq i32 %.val.i.i.i31, 0
  br i1 %.not.i.i.i32, label %_ZNK4lean10object_ref10to_obj_argEv.exit34, label %47

47:                                               ; preds = %46
  tail call void @lean_inc_ref_cold(ptr noundef nonnull %39)
  %.pre.i33 = load ptr, ptr %3, align 8, !tbaa !3
  br label %_ZNK4lean10object_ref10to_obj_argEv.exit34

_ZNK4lean10object_ref10to_obj_argEv.exit34:       ; preds = %_ZNK4lean10object_ref10to_obj_argEv.exit29, %44, %46, %47
  %48 = phi ptr [ %39, %_ZNK4lean10object_ref10to_obj_argEv.exit29 ], [ %39, %44 ], [ %39, %46 ], [ %.pre.i33, %47 ]
  %49 = load ptr, ptr %4, align 8, !tbaa !3
  %50 = ptrtoint ptr %49 to i64
  %51 = and i64 %50, 1
  %.not.i.i35 = icmp eq i64 %51, 0
  br i1 %.not.i.i35, label %52, label %58

52:                                               ; preds = %_ZNK4lean10object_ref10to_obj_argEv.exit34
  %.val.i.i.i36 = load i32, ptr %49, align 4, !tbaa !8
  %53 = icmp sgt i32 %.val.i.i.i36, 0
  br i1 %53, label %54, label %56, !prof !11

54:                                               ; preds = %52
  %55 = add nuw nsw i32 %.val.i.i.i36, 1
  store i32 %55, ptr %49, align 4, !tbaa !8
  br label %58

56:                                               ; preds = %52
  %.not.i.i.i37 = icmp eq i32 %.val.i.i.i36, 0
  br i1 %.not.i.i.i37, label %58, label %57

57:                                               ; preds = %56
  tail call void @lean_inc_ref_cold(ptr noundef nonnull %49)
  %.pre.i38 = load ptr, ptr %4, align 8, !tbaa !3
  br label %58

58:                                               ; preds = %57, %56, %54, %_ZNK4lean10object_ref10to_obj_argEv.exit34
  %59 = phi ptr [ %49, %_ZNK4lean10object_ref10to_obj_argEv.exit34 ], [ %49, %54 ], [ %49, %56 ], [ %.pre.i38, %57 ]
  call void @llvm.lifetime.start.p0(i64 8, ptr nonnull %13) #16
  %60 = zext i32 %5 to i64
  %61 = shl nuw nsw i64 %60, 1
  %62 = or disjoint i64 %61, 1
  %63 = inttoptr i64 %62 to ptr
  store ptr %63, ptr %13, align 8, !tbaa !3
  call void @llvm.lifetime.start.p0(i64 8, ptr nonnull %14) #16
  %64 = zext i32 %6 to i64
  %65 = shl nuw nsw i64 %64, 1
  %66 = or disjoint i64 %65, 1
  %67 = inttoptr i64 %66 to ptr
  store ptr %67, ptr %14, align 8, !tbaa !3
  call void @llvm.lifetime.start.p0(i64 8, ptr nonnull %15) #16
  %68 = zext i32 %7 to i64
  %69 = shl nuw nsw i64 %68, 1
  %70 = or disjoint i64 %69, 1
  %71 = inttoptr i64 %70 to ptr
  store ptr %71, ptr %15, align 8, !tbaa !3
  call void @llvm.lifetime.start.p0(i64 8, ptr nonnull %16) #16
  %72 = zext i32 %8 to i64
  %73 = shl nuw nsw i64 %72, 1
  %74 = or disjoint i64 %73, 1
  %75 = inttoptr i64 %74 to ptr
  store ptr %75, ptr %16, align 8, !tbaa !3
  %76 = load ptr, ptr %9, align 8, !tbaa !3
  %77 = ptrtoint ptr %76 to i64
  %78 = and i64 %77, 1
  %.not.i.i63 = icmp eq i64 %78, 0
  br i1 %.not.i.i63, label %79, label %_ZNK4lean10object_ref10to_obj_argEv.exit68

79:                                               ; preds = %58
  %.val.i.i.i64 = load i32, ptr %76, align 4, !tbaa !8
  %80 = icmp sgt i32 %.val.i.i.i64, 0
  br i1 %80, label %81, label %83, !prof !11

81:                                               ; preds = %79
  %82 = add nuw nsw i32 %.val.i.i.i64, 1
  store i32 %82, ptr %76, align 4, !tbaa !8
  br label %_ZNK4lean10object_ref10to_obj_argEv.exit68

83:                                               ; preds = %79
  %.not.i.i.i65 = icmp eq i32 %.val.i.i.i64, 0
  br i1 %.not.i.i.i65, label %_ZNK4lean10object_ref10to_obj_argEv.exit68, label %84

84:                                               ; preds = %83
  invoke void @lean_inc_ref_cold(ptr noundef nonnull %76)
          to label %.noexc67 unwind label %87

.noexc67:                                         ; preds = %84
  %.pre.i66 = load ptr, ptr %9, align 8, !tbaa !3
  br label %_ZNK4lean10object_ref10to_obj_argEv.exit68

_ZNK4lean10object_ref10to_obj_argEv.exit68:       ; preds = %.noexc67, %83, %81, %58
  %85 = phi ptr [ %76, %58 ], [ %76, %81 ], [ %76, %83 ], [ %.pre.i66, %.noexc67 ]
  %86 = invoke ptr @lean_mk_recursor_val(ptr noundef %28, ptr noundef %38, ptr noundef %48, ptr noundef %59, ptr noundef nonnull %63, ptr noundef nonnull %67, ptr noundef nonnull %71, ptr noundef nonnull %75, ptr noundef %85, i8 noundef zeroext %17, i8 noundef zeroext %18)
          to label %_ZN4lean10object_refD2Ev.exit79 unwind label %87

_ZN4lean10object_refD2Ev.exit79:                  ; preds = %_ZNK4lean10object_ref10to_obj_argEv.exit68
  store ptr %86, ptr %0, align 8, !tbaa !3
  call void @llvm.lifetime.end.p0(i64 8, ptr nonnull %16) #16
  call void @llvm.lifetime.end.p0(i64 8, ptr nonnull %15) #16
  call void @llvm.lifetime.end.p0(i64 8, ptr nonnull %14) #16
  call void @llvm.lifetime.end.p0(i64 8, ptr nonnull %13) #16
  ret void

87:                                               ; preds = %84, %_ZNK4lean10object_ref10to_obj_argEv.exit68
  %88 = landingpad { ptr, i32 }
          cleanup
  call void @_ZN4lean10object_refD2Ev(ptr noundef nonnull align 8 dereferenceable(8) %16) #16
  call void @llvm.lifetime.end.p0(i64 8, ptr nonnull %16) #16
  call void @_ZN4lean10object_refD2Ev(ptr noundef nonnull align 8 dereferenceable(8) %15) #16
  call void @llvm.lifetime.end.p0(i64 8, ptr nonnull %15) #16
  call void @_ZN4lean10object_refD2Ev(ptr noundef nonnull align 8 dereferenceable(8) %14) #16
  call void @llvm.lifetime.end.p0(i64 8, ptr nonnull %14) #16
  call void @_ZN4lean10object_refD2Ev(ptr noundef nonnull align 8 dereferenceable(8) %13) #16
  call void @llvm.lifetime.end.p0(i64 8, ptr nonnull %13) #16
  resume { ptr, i32 } %88
}